; Function Attrs: nounwind uwtable
define range(i32 -4, 1) i32 @inflateCopy(ptr noundef writeonly %0, ptr noundef readonly %1) local_unnamed_addr #2 {
  %3 = icmp eq ptr %0, null
  %4 = icmp eq ptr %1, null
  %or.cond = or i1 %3, %4
  br i1 %or.cond, label %71, label %5

5:                                                ; preds = %2
  %6 = getelementptr inbounds nuw i8, ptr %1, i64 56
  %7 = load ptr, ptr %6, align 8, !tbaa !3
  %8 = icmp eq ptr %7, null
  br i1 %8, label %71, label %9

9:                                                ; preds = %5
  %10 = getelementptr inbounds nuw i8, ptr %1, i64 64
  %11 = load ptr, ptr %10, align 8, !tbaa !39
  %12 = icmp eq ptr %11, null
  br i1 %12, label %71, label %13

13:                                               ; preds = %9
  %14 = getelementptr inbounds nuw i8, ptr %1, i64 72
  %15 = load ptr, ptr %14, align 8, !tbaa !35
  %16 = icmp eq ptr %15, null
  br i1 %16, label %71, label %17

17:                                               ; preds = %13
  %18 = getelementptr inbounds nuw i8, ptr %1, i64 80
  %19 = load ptr, ptr %18, align 8, !tbaa !36
  %20 = tail call ptr %11(ptr noundef %19, i32 noundef 1, i32 noundef 7152) #10
  %21 = icmp eq ptr %20, null
  br i1 %21, label %71, label %22

22:                                               ; preds = %17
  %23 = getelementptr inbounds nuw i8, ptr %7, i64 64
  %24 = load ptr, ptr %23, align 8, !tbaa !32
  %.not = icmp eq ptr %24, null
  br i1 %.not, label %36, label %25

25:                                               ; preds = %22
  %26 = load ptr, ptr %10, align 8, !tbaa !39
  %27 = load ptr, ptr %18, align 8, !tbaa !36
  %28 = getelementptr inbounds nuw i8, ptr %7, i64 48
  %29 = load i32, ptr %28, align 8, !tbaa !33
  %30 = shl nuw i32 1, %29
  %31 = tail call ptr %26(ptr noundef %27, i32 noundef %30, i32 noundef 1) #10
  %32 = icmp eq ptr %31, null
  br i1 %32, label %33, label %36

33:                                               ; preds = %25
  %34 = load ptr, ptr %14, align 8, !tbaa !35
  %35 = load ptr, ptr %18, align 8, !tbaa !36
  tail call void %34(ptr noundef %35, ptr noundef nonnull %20) #10
  br label %71

36:                                               ; preds = %25, %22
  %.047 = phi ptr [ %31, %25 ], [ null, %22 ]
  tail call void @llvm.memcpy.p0.p0.i64(ptr noundef nonnull align 8 dereferenceable(112) %0, ptr noundef nonnull align 8 dereferenceable(112) %1, i64 112, i1 false)
  tail call void @llvm.memcpy.p0.p0.i64(ptr noundef nonnull align 8 dereferenceable(7152) %20, ptr noundef nonnull align 8 dereferenceable(7152) %7, i64 7152, i1 false)
  %37 = getelementptr inbounds nuw i8, ptr %7, i64 96
  %38 = load ptr, ptr %37, align 8, !tbaa !29
  %39 = getelementptr inbounds nuw i8, ptr %7, i64 1360
  %.not56 = icmp ult ptr %38, %39
  %40 = getelementptr inbounds nuw i8, ptr %7, i64 7132
  %.not57 = icmp ugt ptr %38, %40
  %or.cond59 = select i1 %.not56, i1 true, i1 %.not57
  br i1 %or.cond59, label %._crit_edge, label %41

._crit_edge:                                      ; preds = %36
  %.pre = ptrtoint ptr %39 to i64
  br label %54

41:                                               ; preds = %36
  %42 = getelementptr inbounds nuw i8, ptr %20, i64 1360
  %43 = ptrtoint ptr %38 to i64
  %44 = ptrtoint ptr %39 to i64
  %45 = sub i64 %43, %44
  %46 = getelementptr inbounds i8, ptr %42, i64 %45
  %47 = getelementptr inbounds nuw i8, ptr %20, i64 96
  store ptr %46, ptr %47, align 8, !tbaa !29
  %48 = getelementptr inbounds nuw i8, ptr %7, i64 104
  %49 = load ptr, ptr %48, align 8, !tbaa !28
  %50 = ptrtoint ptr %49 to i64
  %51 = sub i64 %50, %44
  %52 = getelementptr inbounds i8, ptr %42, i64 %51
  %53 = getelementptr inbounds nuw i8, ptr %20, i64 104
  store ptr %52, ptr %53, align 8, !tbaa !28
  br label %54

54:                                               ; preds = %._crit_edge, %41
  %.pre-phi = phi i64 [ %.pre, %._crit_edge ], [ %44, %41 ]
  %55 = getelementptr inbounds nuw i8, ptr %20, i64 1360
  %56 = getelementptr inbounds nuw i8, ptr %7, i64 136
  %57 = load ptr, ptr %56, align 8, !tbaa !27
  %58 = ptrtoint ptr %57 to i64
  %59 = sub i64 %58, %.pre-phi
  %60 = getelementptr inbounds i8, ptr %55, i64 %59
  %61 = getelementptr inbounds nuw i8, ptr %20, i64 136
  store ptr %60, ptr %61, align 8, !tbaa !27
  %.not58 = icmp eq ptr %.047, null
  br i1 %.not58, label %68, label %62

62:                                               ; preds = %54
  %63 = getelementptr inbounds nuw i8, ptr %7, i64 48
  %64 = load i32, ptr %63, align 8, !tbaa !33
  %65 = shl nuw i32 1, %64
  %66 = load ptr, ptr %23, align 8, !tbaa !32
  %67 = zext i32 %65 to i64
  tail call void @llvm.memcpy.p0.p0.i64(ptr noundef nonnull align 1 dereferenceable(1) %.047, ptr noundef nonnull align 1 dereferenceable(1) %66, i64 %67, i1 false)
  br label %68

68:                                               ; preds = %62, %54
  %69 = getelementptr inbounds nuw i8, ptr %20, i64 64
  store ptr %.047, ptr %69, align 8, !tbaa !32
  %70 = getelementptr inbounds nuw i8, ptr %0, i64 56
  store ptr %20, ptr %70, align 8, !tbaa !3
  br label %71

71:                                               ; preds = %17, %2, %5, %9, %13, %68, %33
  %.0 = phi i32 [ -4, %33 ], [ 0, %68 ], [ -2, %13 ], [ -2, %9 ], [ -2, %5 ], [ -2, %2 ], [ -4, %17 ]
  ret i32 %.0
}